target datalayout = "e-m:e-p270:32:32-p271:32:32-p272:64:64-i64:64-i128:128-f80:128-n8:16:32:64-S128"
target triple = "x86_64-pc-linux-gnu"

%struct._priv_exr_context_t = type { i8, i8, i8, i8, i8, i8, i8, i8, %struct.exr_attr_string_t, %struct.exr_attr_string_t, ptr, ptr, ptr, ptr, ptr, ptr, ptr, ptr, i32, i32, i32, i32, i32, float, ptr, ptr, ptr, i64, ptr, ptr, i64, i32, i32, i32, i32, %struct._priv_exr_part_t, ptr, ptr, %struct.exr_attribute_list, %union.pthread_mutex_t, i8, i8, [2 x i8], i32 }
%struct.exr_attr_string_t = type { i32, i32, ptr }
%struct._priv_exr_part_t = type { i32, i32, %struct.exr_attribute_list, ptr, ptr, ptr, ptr, ptr, ptr, ptr, ptr, ptr, ptr, ptr, ptr, ptr, ptr, %struct.exr_attr_box2i_t, %struct.exr_attr_box2i_t, i32, i32, i32, float, i32, i32, ptr, ptr, ptr, ptr, i64, i16, i16, i32, i64, i64 }
%struct.exr_attr_box2i_t = type { %struct.exr_attr_v2i_t, %struct.exr_attr_v2i_t }
%struct.exr_attr_v2i_t = type { i32, i32 }
%struct.exr_attribute_list = type { i32, i32, ptr, ptr }
%union.pthread_mutex_t = type { %struct.__pthread_mutex_s }
%struct.__pthread_mutex_s = type { i32, i32, i32, i32, i32, i16, i16, %struct.__pthread_internal_list }
%struct.__pthread_internal_list = type { ptr, ptr }

@.str = private unnamed_addr constant [29 x i8] c"Part index (%d) out of range\00", align 1
@.str.13 = private unnamed_addr constant [29 x i8] c"Tile data missing or corrupt\00", align 1
@.str.14 = private unnamed_addr constant [47 x i8] c"Missing scanline chunk compression information\00", align 1
@.str.15 = private unnamed_addr constant [42 x i8] c"Missing data window for chunk information\00", align 1

; Function Attrs: inlinehint nounwind uwtable
define internal void @internal_exr_unlock(ptr noundef %0) #2 {
  %2 = alloca ptr, align 8
  %3 = alloca ptr, align 8
  store ptr %0, ptr %2, align 8, !tbaa !3
  call void @llvm.lifetime.start.p0(i64 8, ptr %3) #6
  %4 = load ptr, ptr %2, align 8, !tbaa !3
  %5 = ptrtoint ptr %4 to i64
  %6 = inttoptr i64 %5 to ptr
  store ptr %6, ptr %3, align 8, !tbaa !3
  %7 = load ptr, ptr %3, align 8, !tbaa !3
  %8 = getelementptr inbounds nuw %struct._priv_exr_context_t, ptr %7, i32 0, i32 39
  %9 = call i32 @pthread_mutex_unlock(ptr noundef %8) #6
  call void @llvm.lifetime.end.p0(i64 8, ptr %3) #6
  ret void
}

; Function Attrs: inlinehint nounwind uwtable
define internal void @internal_exr_lock(ptr noundef %0) #2 {
  %2 = alloca ptr, align 8
  %3 = alloca ptr, align 8
  store ptr %0, ptr %2, align 8, !tbaa !3
  call void @llvm.lifetime.start.p0(i64 8, ptr %3) #6
  %4 = load ptr, ptr %2, align 8, !tbaa !3
  %5 = ptrtoint ptr %4 to i64
  %6 = inttoptr i64 %5 to ptr
  store ptr %6, ptr %3, align 8, !tbaa !3
  %7 = load ptr, ptr %3, align 8, !tbaa !3
  %8 = getelementptr inbounds nuw %struct._priv_exr_context_t, ptr %7, i32 0, i32 39
  %9 = call i32 @pthread_mutex_lock(ptr noundef %8) #6
  call void @llvm.lifetime.end.p0(i64 8, ptr %3) #6
  ret void
}

; Function Attrs: nounwind uwtable
define i32 @exr_get_chunk_count(ptr noundef %0, i32 noundef %1, ptr noundef %2) #0 {
  %4 = alloca i32, align 4
  %5 = alloca ptr, align 8
  %6 = alloca i32, align 4
  %7 = alloca ptr, align 8
  %8 = alloca ptr, align 8
  %9 = alloca i32, align 4
  store ptr %0, ptr %5, align 8, !tbaa !3
  store i32 %1, ptr %6, align 4, !tbaa !27
  store ptr %2, ptr %7, align 8, !tbaa !8
  call void @llvm.lifetime.start.p0(i64 8, ptr %8) #6
  %10 = load ptr, ptr %5, align 8, !tbaa !3
  %11 = icmp ne ptr %10, null
  br i1 %11, label %13, label %12

12:                                               ; preds = %3
  store i32 2, ptr %4, align 4
  store i32 1, ptr %9, align 4
  br label %200

13:                                               ; preds = %3
  %14 = load ptr, ptr %5, align 8, !tbaa !3
  %15 = getelementptr inbounds nuw %struct._priv_exr_context_t, ptr %14, i32 0, i32 0
  %16 = load i8, ptr %15, align 8, !tbaa !25
  %17 = zext i8 %16 to i32
  %18 = icmp eq i32 %17, 1
  br i1 %18, label %19, label %21

19:                                               ; preds = %13
  %20 = load ptr, ptr %5, align 8, !tbaa !3
  call void @internal_exr_lock(ptr noundef %20)
  br label %21

21:                                               ; preds = %19, %13
  %22 = load i32, ptr %6, align 4, !tbaa !27
  %23 = icmp slt i32 %22, 0
  br i1 %23, label %30, label %24

24:                                               ; preds = %21
  %25 = load i32, ptr %6, align 4, !tbaa !27
  %26 = load ptr, ptr %5, align 8, !tbaa !3
  %27 = getelementptr inbounds nuw %struct._priv_exr_context_t, ptr %26, i32 0, i32 34
  %28 = load i32, ptr %27, align 4, !tbaa !26
  %29 = icmp sge i32 %25, %28
  br i1 %29, label %30, label %45

30:                                               ; preds = %24, %21
  %31 = load ptr, ptr %5, align 8, !tbaa !3
  %32 = getelementptr inbounds nuw %struct._priv_exr_context_t, ptr %31, i32 0, i32 0
  %33 = load i8, ptr %32, align 8, !tbaa !25
  %34 = zext i8 %33 to i32
  %35 = icmp eq i32 %34, 1
  br i1 %35, label %36, label %38

36:                                               ; preds = %30
  %37 = load ptr, ptr %5, align 8, !tbaa !3
  call void @internal_exr_unlock(ptr noundef %37)
  br label %38

38:                                               ; preds = %36, %30
  %39 = load ptr, ptr %5, align 8, !tbaa !3
  %40 = getelementptr inbounds nuw %struct._priv_exr_context_t, ptr %39, i32 0, i32 14
  %41 = load ptr, ptr %40, align 8, !tbaa !29
  %42 = load ptr, ptr %5, align 8, !tbaa !3
  %43 = load i32, ptr %6, align 4, !tbaa !27
  %44 = call i32 (ptr, i32, ptr, ...) %41(ptr noundef %42, i32 noundef 4, ptr noundef @.str, i32 noundef %43)
  store i32 %44, ptr %4, align 4
  store i32 1, ptr %9, align 4
  br label %200

45:                                               ; preds = %24
  %46 = load ptr, ptr %5, align 8, !tbaa !3
  %47 = getelementptr inbounds nuw %struct._priv_exr_context_t, ptr %46, i32 0, i32 37
  %48 = load ptr, ptr %47, align 8, !tbaa !30
  %49 = load i32, ptr %6, align 4, !tbaa !27
  %50 = sext i32 %49 to i64
  %51 = getelementptr inbounds ptr, ptr %48, i64 %50
  %52 = load ptr, ptr %51, align 8, !tbaa !31
  store ptr %52, ptr %8, align 8, !tbaa !31
  %53 = load ptr, ptr %7, align 8, !tbaa !8
  %54 = icmp ne ptr %53, null
  br i1 %54, label %70, label %55

55:                                               ; preds = %45
  %56 = load ptr, ptr %5, align 8, !tbaa !3
  %57 = getelementptr inbounds nuw %struct._priv_exr_context_t, ptr %56, i32 0, i32 0
  %58 = load i8, ptr %57, align 8, !tbaa !25
  %59 = zext i8 %58 to i32
  %60 = icmp eq i32 %59, 1
  br i1 %60, label %61, label %63

61:                                               ; preds = %55
  %62 = load ptr, ptr %5, align 8, !tbaa !3
  call void @internal_exr_unlock(ptr noundef %62)
  br label %64

63:                                               ; preds = %55
  br label %64

64:                                               ; preds = %63, %61
  %65 = load ptr, ptr %5, align 8, !tbaa !3
  %66 = getelementptr inbounds nuw %struct._priv_exr_context_t, ptr %65, i32 0, i32 12
  %67 = load ptr, ptr %66, align 8, !tbaa !10
  %68 = load ptr, ptr %5, align 8, !tbaa !3
  %69 = call i32 %67(ptr noundef %68, i32 noundef 3)
  store i32 %69, ptr %4, align 4
  store i32 1, ptr %9, align 4
  br label %200

70:                                               ; preds = %45
  %71 = load ptr, ptr %8, align 8, !tbaa !31
  %72 = getelementptr inbounds nuw %struct._priv_exr_part_t, ptr %71, i32 0, i32 5
  %73 = load ptr, ptr %72, align 8, !tbaa !55
  %74 = icmp ne ptr %73, null
  br i1 %74, label %75, label %185

75:                                               ; preds = %70
  %76 = load ptr, ptr %8, align 8, !tbaa !31
  %77 = getelementptr inbounds nuw %struct._priv_exr_part_t, ptr %76, i32 0, i32 1
  %78 = load i32, ptr %77, align 4, !tbaa !32
  %79 = icmp eq i32 %78, 1
  br i1 %79, label %85, label %80

80:                                               ; preds = %75
  %81 = load ptr, ptr %8, align 8, !tbaa !31
  %82 = getelementptr inbounds nuw %struct._priv_exr_part_t, ptr %81, i32 0, i32 1
  %83 = load i32, ptr %82, align 4, !tbaa !32
  %84 = icmp eq i32 %83, 3
  br i1 %84, label %85, label %119

85:                                               ; preds = %80, %75
  %86 = load ptr, ptr %8, align 8, !tbaa !31
  %87 = getelementptr inbounds nuw %struct._priv_exr_part_t, ptr %86, i32 0, i32 11
  %88 = load ptr, ptr %87, align 8, !tbaa !45
  %89 = icmp ne ptr %88, null
  br i1 %89, label %90, label %104

90:                                               ; preds = %85
  %91 = load ptr, ptr %8, align 8, !tbaa !31
  %92 = getelementptr inbounds nuw %struct._priv_exr_part_t, ptr %91, i32 0, i32 32
  %93 = load i32, ptr %92, align 4, !tbaa !56
  %94 = load ptr, ptr %7, align 8, !tbaa !8
  store i32 %93, ptr %94, align 4, !tbaa !27
  %95 = load ptr, ptr %5, align 8, !tbaa !3
  %96 = getelementptr inbounds nuw %struct._priv_exr_context_t, ptr %95, i32 0, i32 0
  %97 = load i8, ptr %96, align 8, !tbaa !25
  %98 = zext i8 %97 to i32
  %99 = icmp eq i32 %98, 1
  br i1 %99, label %100, label %102

100:                                              ; preds = %90
  %101 = load ptr, ptr %5, align 8, !tbaa !3
  call void @internal_exr_unlock(ptr noundef %101)
  br label %103

102:                                              ; preds = %90
  br label %103

103:                                              ; preds = %102, %100
  store i32 0, ptr %4, align 4
  store i32 1, ptr %9, align 4
  br label %200

104:                                              ; preds = %85
  %105 = load ptr, ptr %5, align 8, !tbaa !3
  %106 = getelementptr inbounds nuw %struct._priv_exr_context_t, ptr %105, i32 0, i32 0
  %107 = load i8, ptr %106, align 8, !tbaa !25
  %108 = zext i8 %107 to i32
  %109 = icmp eq i32 %108, 1
  br i1 %109, label %110, label %112

110:                                              ; preds = %104
  %111 = load ptr, ptr %5, align 8, !tbaa !3
  call void @internal_exr_unlock(ptr noundef %111)
  br label %113

112:                                              ; preds = %104
  br label %113

113:                                              ; preds = %112, %110
  %114 = load ptr, ptr %5, align 8, !tbaa !3
  %115 = getelementptr inbounds nuw %struct._priv_exr_context_t, ptr %114, i32 0, i32 13
  %116 = load ptr, ptr %115, align 8, !tbaa !57
  %117 = load ptr, ptr %5, align 8, !tbaa !3
  %118 = call i32 %116(ptr noundef %117, i32 noundef 13, ptr noundef @.str.13)
  store i32 %118, ptr %4, align 4
  store i32 1, ptr %9, align 4
  br label %200

119:                                              ; preds = %80
  %120 = load ptr, ptr %8, align 8, !tbaa !31
  %121 = getelementptr inbounds nuw %struct._priv_exr_part_t, ptr %120, i32 0, i32 1
  %122 = load i32, ptr %121, align 4, !tbaa !32
  %123 = icmp eq i32 %122, 0
  br i1 %123, label %129, label %124

124:                                              ; preds = %119
  %125 = load ptr, ptr %8, align 8, !tbaa !31
  %126 = getelementptr inbounds nuw %struct._priv_exr_part_t, ptr %125, i32 0, i32 1
  %127 = load i32, ptr %126, align 4, !tbaa !32
  %128 = icmp eq i32 %127, 2
  br i1 %128, label %129, label %163

129:                                              ; preds = %124, %119
  %130 = load ptr, ptr %8, align 8, !tbaa !31
  %131 = getelementptr inbounds nuw %struct._priv_exr_part_t, ptr %130, i32 0, i32 4
  %132 = load ptr, ptr %131, align 8, !tbaa !58
  %133 = icmp ne ptr %132, null
  br i1 %133, label %134, label %148

134:                                              ; preds = %129
  %135 = load ptr, ptr %8, align 8, !tbaa !31
  %136 = getelementptr inbounds nuw %struct._priv_exr_part_t, ptr %135, i32 0, i32 32
  %137 = load i32, ptr %136, align 4, !tbaa !56
  %138 = load ptr, ptr %7, align 8, !tbaa !8
  store i32 %137, ptr %138, align 4, !tbaa !27
  %139 = load ptr, ptr %5, align 8, !tbaa !3
  %140 = getelementptr inbounds nuw %struct._priv_exr_context_t, ptr %139, i32 0, i32 0
  %141 = load i8, ptr %140, align 8, !tbaa !25
  %142 = zext i8 %141 to i32
  %143 = icmp eq i32 %142, 1
  br i1 %143, label %144, label %146

144:                                              ; preds = %134
  %145 = load ptr, ptr %5, align 8, !tbaa !3
  call void @internal_exr_unlock(ptr noundef %145)
  br label %147

146:                                              ; preds = %134
  br label %147

147:                                              ; preds = %146, %144
  store i32 0, ptr %4, align 4
  store i32 1, ptr %9, align 4
  br label %200

148:                                              ; preds = %129
  %149 = load ptr, ptr %5, align 8, !tbaa !3
  %150 = getelementptr inbounds nuw %struct._priv_exr_context_t, ptr %149, i32 0, i32 0
  %151 = load i8, ptr %150, align 8, !tbaa !25
  %152 = zext i8 %151 to i32
  %153 = icmp eq i32 %152, 1
  br i1 %153, label %154, label %156

154:                                              ; preds = %148
  %155 = load ptr, ptr %5, align 8, !tbaa !3
  call void @internal_exr_unlock(ptr noundef %155)
  br label %157

156:                                              ; preds = %148
  br label %157

157:                                              ; preds = %156, %154
  %158 = load ptr, ptr %5, align 8, !tbaa !3
  %159 = getelementptr inbounds nuw %struct._priv_exr_context_t, ptr %158, i32 0, i32 13
  %160 = load ptr, ptr %159, align 8, !tbaa !57
  %161 = load ptr, ptr %5, align 8, !tbaa !3
  %162 = call i32 %160(ptr noundef %161, i32 noundef 13, ptr noundef @.str.14)
  store i32 %162, ptr %4, align 4
  store i32 1, ptr %9, align 4
  br label %200

163:                                              ; preds = %124
  %164 = load ptr, ptr %8, align 8, !tbaa !31
  %165 = getelementptr inbounds nuw %struct._priv_exr_part_t, ptr %164, i32 0, i32 1
  %166 = load i32, ptr %165, align 4, !tbaa !32
  %167 = icmp eq i32 %166, 5
  br i1 %167, label %168, label %182

168:                                              ; preds = %163
  %169 = load ptr, ptr %8, align 8, !tbaa !31
  %170 = getelementptr inbounds nuw %struct._priv_exr_part_t, ptr %169, i32 0, i32 32
  %171 = load i32, ptr %170, align 4, !tbaa !56
  %172 = load ptr, ptr %7, align 8, !tbaa !8
  store i32 %171, ptr %172, align 4, !tbaa !27
  %173 = load ptr, ptr %5, align 8, !tbaa !3
  %174 = getelementptr inbounds nuw %struct._priv_exr_context_t, ptr %173, i32 0, i32 0
  %175 = load i8, ptr %174, align 8, !tbaa !25
  %176 = zext i8 %175 to i32
  %177 = icmp eq i32 %176, 1
  br i1 %177, label %178, label %180

178:                                              ; preds = %168
  %179 = load ptr, ptr %5, align 8, !tbaa !3
  call void @internal_exr_unlock(ptr noundef %179)
  br label %181

180:                                              ; preds = %168
  br label %181

181:                                              ; preds = %180, %178
  store i32 0, ptr %4, align 4
  store i32 1, ptr %9, align 4
  br label %200

182:                                              ; preds = %163
  br label %183

183:                                              ; preds = %182
  br label %184

184:                                              ; preds = %183
  br label %185

185:                                              ; preds = %184, %70
  %186 = load ptr, ptr %5, align 8, !tbaa !3
  %187 = getelementptr inbounds nuw %struct._priv_exr_context_t, ptr %186, i32 0, i32 0
  %188 = load i8, ptr %187, align 8, !tbaa !25
  %189 = zext i8 %188 to i32
  %190 = icmp eq i32 %189, 1
  br i1 %190, label %191, label %193

191:                                              ; preds = %185
  %192 = load ptr, ptr %5, align 8, !tbaa !3
  call void @internal_exr_unlock(ptr noundef %192)
  br label %194

193:                                              ; preds = %185
  br label %194

194:                                              ; preds = %193, %191
  %195 = load ptr, ptr %5, align 8, !tbaa !3
  %196 = getelementptr inbounds nuw %struct._priv_exr_context_t, ptr %195, i32 0, i32 13
  %197 = load ptr, ptr %196, align 8, !tbaa !57
  %198 = load ptr, ptr %5, align 8, !tbaa !3
  %199 = call i32 %197(ptr noundef %198, i32 noundef 13, ptr noundef @.str.15)
  store i32 %199, ptr %4, align 4
  store i32 1, ptr %9, align 4
  br label %200

200:                                              ; preds = %194, %181, %157, %147, %113, %103, %64, %38, %12
  call void @llvm.lifetime.end.p0(i64 8, ptr %8) #6
  %201 = load i32, ptr %4, align 4
  ret i32 %201
}