; Function Attrs: nounwind uwtable
define i32 @exr_get_chunk_count(ptr noundef %0, i32 noundef %1, ptr noundef writeonly %2) local_unnamed_addr #0 {
  %.not = icmp eq ptr %0, null
  br i1 %.not, label %107, label %4

4:                                                ; preds = %3
  %5 = load i8, ptr %0, align 8, !tbaa !22
  %6 = icmp eq i8 %5, 1
  br i1 %6, label %7, label %10

7:                                                ; preds = %4
  %8 = getelementptr inbounds nuw i8, ptr %0, i64 504
  %9 = tail call i32 @pthread_mutex_lock(ptr noundef nonnull %8) #6
  br label %10

10:                                               ; preds = %7, %4
  %11 = icmp slt i32 %1, 0
  br i1 %11, label %15, label %12

12:                                               ; preds = %10
  %13 = getelementptr inbounds nuw i8, ptr %0, i64 196
  %14 = load i32, ptr %13, align 4, !tbaa !23
  %.not54 = icmp slt i32 %1, %14
  br i1 %.not54, label %25, label %15

15:                                               ; preds = %12, %10
  %16 = load i8, ptr %0, align 8, !tbaa !22
  %17 = icmp eq i8 %16, 1
  br i1 %17, label %18, label %21

18:                                               ; preds = %15
  %19 = getelementptr inbounds nuw i8, ptr %0, i64 504
  %20 = tail call i32 @pthread_mutex_unlock(ptr noundef nonnull %19) #6
  br label %21

21:                                               ; preds = %18, %15
  %22 = getelementptr inbounds nuw i8, ptr %0, i64 72
  %23 = load ptr, ptr %22, align 8, !tbaa !25
  %24 = tail call i32 (ptr, i32, ptr, ...) %23(ptr noundef nonnull %0, i32 noundef 4, ptr noundef nonnull @.str, i32 noundef %1) #6
  br label %107

25:                                               ; preds = %12
  %26 = getelementptr inbounds nuw i8, ptr %0, i64 472
  %27 = load ptr, ptr %26, align 8, !tbaa !26
  %28 = zext nneg i32 %1 to i64
  %29 = getelementptr inbounds nuw ptr, ptr %27, i64 %28
  %30 = load ptr, ptr %29, align 8, !tbaa !27
  %.not55 = icmp eq ptr %2, null
  br i1 %.not55, label %31, label %41

31:                                               ; preds = %25
  %32 = load i8, ptr %0, align 8, !tbaa !22
  %33 = icmp eq i8 %32, 1
  br i1 %33, label %34, label %37

34:                                               ; preds = %31
  %35 = getelementptr inbounds nuw i8, ptr %0, i64 504
  %36 = tail call i32 @pthread_mutex_unlock(ptr noundef nonnull %35) #6
  br label %37

37:                                               ; preds = %31, %34
  %38 = getelementptr inbounds nuw i8, ptr %0, i64 56
  %39 = load ptr, ptr %38, align 8, !tbaa !3
  %40 = tail call i32 %39(ptr noundef nonnull %0, i32 noundef 3) #6
  br label %107

41:                                               ; preds = %25
  %42 = getelementptr inbounds nuw i8, ptr %30, i64 48
  %43 = load ptr, ptr %42, align 8, !tbaa !49
  %.not56 = icmp eq ptr %43, null
  br i1 %.not56, label %97, label %44

44:                                               ; preds = %41
  %45 = getelementptr inbounds nuw i8, ptr %30, i64 4
  %46 = load i32, ptr %45, align 4, !tbaa !28
  switch i32 %46, label %97 [
    i32 1, label %47
    i32 3, label %47
    i32 0, label %68
    i32 2, label %68
    i32 5, label %89
  ]

47:                                               ; preds = %44, %44
  %48 = getelementptr inbounds nuw i8, ptr %30, i64 96
  %49 = load ptr, ptr %48, align 8, !tbaa !39
  %.not58 = icmp eq ptr %49, null
  br i1 %.not58, label %58, label %50

50:                                               ; preds = %47
  %51 = getelementptr inbounds nuw i8, ptr %30, i64 244
  %52 = load i32, ptr %51, align 4, !tbaa !50
  store i32 %52, ptr %2, align 4, !tbaa !24
  %53 = load i8, ptr %0, align 8, !tbaa !22
  %54 = icmp eq i8 %53, 1
  br i1 %54, label %55, label %107

55:                                               ; preds = %50
  %56 = getelementptr inbounds nuw i8, ptr %0, i64 504
  %57 = tail call i32 @pthread_mutex_unlock(ptr noundef nonnull %56) #6
  br label %107

58:                                               ; preds = %47
  %59 = load i8, ptr %0, align 8, !tbaa !22
  %60 = icmp eq i8 %59, 1
  br i1 %60, label %61, label %64

61:                                               ; preds = %58
  %62 = getelementptr inbounds nuw i8, ptr %0, i64 504
  %63 = tail call i32 @pthread_mutex_unlock(ptr noundef nonnull %62) #6
  br label %64

64:                                               ; preds = %58, %61
  %65 = getelementptr inbounds nuw i8, ptr %0, i64 64
  %66 = load ptr, ptr %65, align 8, !tbaa !51
  %67 = tail call i32 %66(ptr noundef nonnull %0, i32 noundef 13, ptr noundef nonnull @.str.13) #6
  br label %107

68:                                               ; preds = %44, %44
  %69 = getelementptr inbounds nuw i8, ptr %30, i64 40
  %70 = load ptr, ptr %69, align 8, !tbaa !52
  %.not57 = icmp eq ptr %70, null
  br i1 %.not57, label %79, label %71

71:                                               ; preds = %68
  %72 = getelementptr inbounds nuw i8, ptr %30, i64 244
  %73 = load i32, ptr %72, align 4, !tbaa !50
  store i32 %73, ptr %2, align 4, !tbaa !24
  %74 = load i8, ptr %0, align 8, !tbaa !22
  %75 = icmp eq i8 %74, 1
  br i1 %75, label %76, label %107

76:                                               ; preds = %71
  %77 = getelementptr inbounds nuw i8, ptr %0, i64 504
  %78 = tail call i32 @pthread_mutex_unlock(ptr noundef nonnull %77) #6
  br label %107

79:                                               ; preds = %68
  %80 = load i8, ptr %0, align 8, !tbaa !22
  %81 = icmp eq i8 %80, 1
  br i1 %81, label %82, label %85

82:                                               ; preds = %79
  %83 = getelementptr inbounds nuw i8, ptr %0, i64 504
  %84 = tail call i32 @pthread_mutex_unlock(ptr noundef nonnull %83) #6
  br label %85

85:                                               ; preds = %79, %82
  %86 = getelementptr inbounds nuw i8, ptr %0, i64 64
  %87 = load ptr, ptr %86, align 8, !tbaa !51
  %88 = tail call i32 %87(ptr noundef nonnull %0, i32 noundef 13, ptr noundef nonnull @.str.14) #6
  br label %107

89:                                               ; preds = %44
  %90 = getelementptr inbounds nuw i8, ptr %30, i64 244
  %91 = load i32, ptr %90, align 4, !tbaa !50
  store i32 %91, ptr %2, align 4, !tbaa !24
  %92 = load i8, ptr %0, align 8, !tbaa !22
  %93 = icmp eq i8 %92, 1
  br i1 %93, label %94, label %107

94:                                               ; preds = %89
  %95 = getelementptr inbounds nuw i8, ptr %0, i64 504
  %96 = tail call i32 @pthread_mutex_unlock(ptr noundef nonnull %95) #6
  br label %107

97:                                               ; preds = %44, %41
  %98 = load i8, ptr %0, align 8, !tbaa !22
  %99 = icmp eq i8 %98, 1
  br i1 %99, label %100, label %103

100:                                              ; preds = %97
  %101 = getelementptr inbounds nuw i8, ptr %0, i64 504
  %102 = tail call i32 @pthread_mutex_unlock(ptr noundef nonnull %101) #6
  br label %103

103:                                              ; preds = %97, %100
  %104 = getelementptr inbounds nuw i8, ptr %0, i64 64
  %105 = load ptr, ptr %104, align 8, !tbaa !51
  %106 = tail call i32 %105(ptr noundef nonnull %0, i32 noundef 13, ptr noundef nonnull @.str.15) #6
  br label %107

107:                                              ; preds = %94, %89, %76, %71, %55, %50, %3, %103, %85, %64, %37, %21
  %.0 = phi i32 [ %24, %21 ], [ %67, %64 ], [ %88, %85 ], [ %106, %103 ], [ %40, %37 ], [ 2, %3 ], [ 0, %50 ], [ 0, %55 ], [ 0, %71 ], [ 0, %76 ], [ 0, %89 ], [ 0, %94 ]
  ret i32 %.0
}